; Function Attrs: mustprogress uwtable
define internal void @"_ZNSt13__future_base11_Task_stateIZN11OpenImageIO6v3_1_010TIFFOutput11write_tilesEiiiiiiNS2_8TypeDescEPKvlllE3$_0SaIiEFviEE6_M_runEOi"(ptr noundef nonnull align 8 dereferenceable(200) %0, ptr noundef nonnull align 4 dereferenceable(4) %1) unnamed_addr #5 align 2 personality ptr @__gxx_personality_v0 {
  %3 = alloca %class.anon.263, align 8
  %4 = alloca %"class.std::function.230", align 8
  call void @llvm.lifetime.start.p0(i64 16, ptr nonnull %3) #32
  store ptr %0, ptr %3, align 8, !tbaa !896
  %5 = getelementptr inbounds nuw i8, ptr %3, i64 8
  store ptr %1, ptr %5, align 8, !tbaa !307
  %6 = getelementptr inbounds nuw i8, ptr %0, i64 32
  %7 = getelementptr inbounds nuw i8, ptr %4, i64 16
  %8 = getelementptr inbounds nuw i8, ptr %4, i64 24
  store ptr %6, ptr %4, align 8, !tbaa !817
  %.sroa.5.0..sroa_idx = getelementptr inbounds nuw i8, ptr %4, i64 8
  store ptr %3, ptr %.sroa.5.0..sroa_idx, align 8, !tbaa !259
  store ptr @"_ZNSt17_Function_handlerIFSt10unique_ptrINSt13__future_base12_Result_baseENS2_8_DeleterEEvENS1_12_Task_setterIS0_INS1_7_ResultIvEES3_EZNS1_11_Task_stateIZN11OpenImageIO6v3_1_010TIFFOutput11write_tilesEiiiiiiNSC_8TypeDescEPKvlllE3$_0SaIiEFviEE6_M_runEOiEUlvE_vEEE9_M_invokeERKSt9_Any_data", ptr %8, align 8, !tbaa !819
  store ptr @"_ZNSt17_Function_handlerIFSt10unique_ptrINSt13__future_base12_Result_baseENS2_8_DeleterEEvENS1_12_Task_setterIS0_INS1_7_ResultIvEES3_EZNS1_11_Task_stateIZN11OpenImageIO6v3_1_010TIFFOutput11write_tilesEiiiiiiNSC_8TypeDescEPKvlllE3$_0SaIiEFviEE6_M_runEOiEUlvE_vEEE10_M_managerERSt9_Any_dataRKSP_St18_Manager_operation", ptr %7, align 8, !tbaa !263
  invoke void @_ZNSt13__future_base13_State_baseV213_M_set_resultESt8functionIFSt10unique_ptrINS_12_Result_baseENS3_8_DeleterEEvEEb(ptr noundef nonnull align 8 dereferenceable(28) %0, ptr noundef nonnull %4, i1 noundef zeroext false)
          to label %9 unwind label %16

9:                                                ; preds = %2
  %10 = load ptr, ptr %7, align 8, !tbaa !263
  %.not.i = icmp eq ptr %10, null
  br i1 %.not.i, label %_ZNSt14_Function_baseD2Ev.exit, label %11

11:                                               ; preds = %9
  %12 = invoke noundef zeroext i1 %10(ptr noundef nonnull align 8 dereferenceable(32) %4, ptr noundef nonnull align 8 dereferenceable(32) %4, i32 noundef 3)
          to label %_ZNSt14_Function_baseD2Ev.exit unwind label %13

13:                                               ; preds = %11
  %14 = landingpad { ptr, i32 }
          catch ptr null
  %15 = extractvalue { ptr, i32 } %14, 0
  call void @__clang_call_terminate(ptr %15) #35
  unreachable

_ZNSt14_Function_baseD2Ev.exit:                   ; preds = %9, %11
  call void @llvm.lifetime.end.p0(i64 16, ptr nonnull %3) #32
  ret void

16:                                               ; preds = %2
  %17 = landingpad { ptr, i32 }
          cleanup
  %18 = load ptr, ptr %7, align 8, !tbaa !263
  %.not.i3 = icmp eq ptr %18, null
  br i1 %.not.i3, label %_ZNSt14_Function_baseD2Ev.exit4, label %19

19:                                               ; preds = %16
  %20 = invoke noundef zeroext i1 %18(ptr noundef nonnull align 8 dereferenceable(32) %4, ptr noundef nonnull align 8 dereferenceable(32) %4, i32 noundef 3)
          to label %_ZNSt14_Function_baseD2Ev.exit4 unwind label %21

21:                                               ; preds = %19
  %22 = landingpad { ptr, i32 }
          catch ptr null
  %23 = extractvalue { ptr, i32 } %22, 0
  call void @__clang_call_terminate(ptr %23) #35
  unreachable

_ZNSt14_Function_baseD2Ev.exit4:                  ; preds = %16, %19
  call void @llvm.lifetime.end.p0(i64 16, ptr nonnull %3) #32
  resume { ptr, i32 } %17
}